; Function Attrs: mustprogress nounwind uwtable
define internal fastcc noundef zeroext i1 @_ZN5clang19RecursiveASTVisitorIZNK12_GLOBAL__N_125UncountedLocalVarsChecker12checkASTDeclEPKNS_19TranslationUnitDeclERNS_4ento15AnalysisManagerERNS6_11BugReporterEE12LocalVisitorE26TraverseUnaryTransformTypeEPNS_18UnaryTransformTypeE(ptr noundef nonnull align 1 dereferenceable(1) %0, ptr noundef readonly captures(none) %1) unnamed_addr #0 align 2 {
  %3 = getelementptr inbounds nuw i8, ptr %1, i64 24
  %.sroa.0.0.copyload.i = load i64, ptr %3, align 8
  %4 = tail call fastcc noundef zeroext i1 @_ZN5clang19RecursiveASTVisitorIZNK12_GLOBAL__N_125UncountedLocalVarsChecker12checkASTDeclEPKNS_19TranslationUnitDeclERNS_4ento15AnalysisManagerERNS6_11BugReporterEE12LocalVisitorE12TraverseTypeENS_8QualTypeE(ptr noundef nonnull align 1 dereferenceable(1) %0, i64 %.sroa.0.0.copyload.i)
  br i1 %4, label %5, label %8

5:                                                ; preds = %2
  %6 = getelementptr inbounds nuw i8, ptr %1, i64 32
  %.sroa.0.0.copyload.i7 = load i64, ptr %6, align 16
  %7 = tail call fastcc noundef zeroext i1 @_ZN5clang19RecursiveASTVisitorIZNK12_GLOBAL__N_125UncountedLocalVarsChecker12checkASTDeclEPKNS_19TranslationUnitDeclERNS_4ento15AnalysisManagerERNS6_11BugReporterEE12LocalVisitorE12TraverseTypeENS_8QualTypeE(ptr noundef nonnull align 1 dereferenceable(1) %0, i64 %.sroa.0.0.copyload.i7)
  br label %8

8:                                                ; preds = %5, %2
  %.0 = phi i1 [ false, %2 ], [ %7, %5 ]
  ret i1 %.0
}